target datalayout = "e-m:e-p270:32:32-p271:32:32-p272:64:64-i64:64-i128:128-f80:128-n8:16:32:64-S128"
target triple = "x86_64-pc-linux-gnu"

; Function Attrs: nounwind uwtable
define internal double @trc_log_sqrt_inv(double noundef %0) #0 {
  %2 = alloca double, align 8
  store double %0, ptr %2, align 8, !tbaa !27
  %3 = load double, ptr %2, align 8, !tbaa !27
  %4 = fcmp nsz ogt double 0.000000e+00, %3
  br i1 %4, label %5, label %6

5:                                                ; preds = %1
  br label %11

6:                                                ; preds = %1
  %7 = load double, ptr %2, align 8, !tbaa !27
  %8 = fsub nsz double %7, 1.000000e+00
  %9 = fmul nsz double 2.500000e+00, %8
  %10 = call nsz double @llvm.pow.f64(double 1.000000e+01, double %9)
  br label %11

11:                                               ; preds = %6, %5
  %12 = phi nsz double [ 0x3F69E7C6E42DA417, %5 ], [ %10, %6 ]
  ret double %12
}