; Function Attrs: mustprogress nofree norecurse nosync nounwind willreturn memory(none) uwtable
define internal noundef double @trc_log_sqrt_inv(double noundef %0) #0 {
  %2 = fcmp nsz olt double %0, 0.000000e+00
  br i1 %2, label %7, label %3

3:                                                ; preds = %1
  %4 = fadd nsz double %0, -1.000000e+00
  %5 = fmul nsz double %4, 2.500000e+00
  %6 = tail call nsz double @llvm.pow.f64(double 1.000000e+01, double %5)
  br label %7

7:                                                ; preds = %1, %3
  %8 = phi nsz double [ %6, %3 ], [ 0x3F69E7C6E42DA417, %1 ]
  ret double %8
}